(lp0
(S'stty'
p1
S'/bin/stty'
p2
tp3
a(S'version.txt'
p4
S'/Applications/Arduino.app/Contents/Resources/Java/lib/version.txt'
p5
tp6
a(S'used_libs'
p7
(lp8
S'/Applications/Arduino.app/Contents/Resources/Java/hardware/arduino/cores/arduino'
p9
atp10
a(S'cc'
p11
S'/Applications/Arduino.app/Contents/Resources/Java/hardware/tools/avr/bin/avr-gcc'
p12
tp13
a(S'cflags'
p14
ccopy_reg
_reconstructor
p15
(cino.utils
SpaceList
p16
c__builtin__
list
p17
(lp18
S'-mmcu=atmega328p'
p19
aS'-ffunction-sections'
p20
aS'-fdata-sections'
p21
aS'-g'
p22
aS'-Os'
p23
aS'-w'
p24
aS'-DF_CPU=16000000L'
p25
aS'-DARDUINO=100'
p26
aS'-I/Applications/Arduino.app/Contents/Resources/Java/hardware/arduino/cores/arduino'
p27
aS'-I/Applications/Arduino.app/Contents/Resources/Java/hardware/arduino/variants/standard'
p28
aS'-I/Applications/Arduino.app/Contents/Resources/Java/hardware/arduino/cores/arduino'
p29
atp30
Rp31
tp32
a(S'arduino_libraries_dir'
p33
S'/Applications/Arduino.app/Contents/Resources/Java/libraries'
p34
tp35
a(S'arduino_core_dir'
p36
g9
tp37
a(S'boards.txt'
p38
S'/Applications/Arduino.app/Contents/Resources/Java/hardware/arduino/boards.txt'
p39
tp40
a(S'cxxflags'
p41
g15
(g16
g17
(lp42
S'-fno-exceptions'
p43
atp44
Rp45
tp46
a(S'arduino_variants_dir'
p47
S'/Applications/Arduino.app/Contents/Resources/Java/hardware/arduino/variants'
p48
tp49
a(S'avrdude'
p50
S'/Applications/Arduino.app/Contents/Resources/Java/hardware/tools/avr/bin/avrdude'
p51
tp52
a(S'avrdude.conf'
p53
S'/Applications/Arduino.app/Contents/Resources/Java/hardware/tools/avr/etc/avrdude.conf'
p54
tp55
a(S'names'
p56
(dp57
S'cpp'
p58
S'%s.cpp'
p59
sS'obj'
p60
S'%s.o'
p61
sS'lib'
p62
S'lib%s.a'
p63
sS'deps'
p64
S'%s.d'
p65
stp66
a(S'deps'
p67
g15
(g16
g17
(lp68
S'.build/uno/src/dependencies.d'
p69
aS'.build/uno/arduino/dependencies.d'
p70
atp71
Rp72
tp73
a(S'elfflags'
p74
g15
(g16
g17
(lp75
g23
aS'-Wl,--gc-sections'
p76
ag19
atp77
Rp78
tp79
a(S'arduino_lib_version'
p80
g15
(cino.environment
Version
p81
c__builtin__
tuple
p82
(I1
I0
tp83
tp84
Rp85
tp86
a(S'objcopy'
p87
S'/Applications/Arduino.app/Contents/Resources/Java/hardware/tools/avr/bin/avr-objcopy'
p88
tp89
a(S'ar'
p90
S'/Applications/Arduino.app/Contents/Resources/Java/hardware/tools/avr/bin/avr-ar'
p91
tp92
a(S'board_models'
p93
cino.environment
BoardModels
p94
((lp95
(lp96
S'uno'
p97
a(dp98
S'bootloader'
p99
(dp100
S'extended_fuses'
p101
S'0x05'
p102
sS'high_fuses'
p103
S'0xde'
p104
sS'low_fuses'
p105
S'0xff'
p106
sS'lock_bits'
p107
S'0x0F'
p108
sS'file'
p109
S'optiboot_atmega328.hex'
p110
sS'path'
p111
S'optiboot'
p112
sS'unlock_bits'
p113
S'0x3F'
p114
ssS'upload'
p115
(dp116
S'protocol'
p117
S'arduino'
p118
sS'maximum_size'
p119
S'32256'
p120
sS'speed'
p121
S'115200'
p122
ssS'build'
p123
(dp124
S'core'
p125
S'arduino'
p126
sS'mcu'
p127
S'atmega328p'
p128
sS'f_cpu'
p129
S'16000000L'
p130
sS'variant'
p131
S'standard'
p132
ssS'name'
p133
S'Arduino Uno'
p134
saa(lp135
S'atmega328'
p136
a(dp137
S'bootloader'
p138
(dp139
S'extended_fuses'
p140
S'0x05'
p141
sS'high_fuses'
p142
S'0xDA'
p143
sS'low_fuses'
p144
S'0xFF'
p145
sS'lock_bits'
p146
S'0x0F'
p147
sS'file'
p148
S'ATmegaBOOT_168_atmega328.hex'
p149
sS'path'
p150
S'atmega'
p151
sS'unlock_bits'
p152
S'0x3F'
p153
ssS'upload'
p154
(dp155
S'protocol'
p156
S'arduino'
p157
sS'maximum_size'
p158
S'30720'
p159
sS'speed'
p160
S'57600'
p161
ssS'build'
p162
(dp163
S'core'
p164
S'arduino'
p165
sS'mcu'
p166
S'atmega328p'
p167
sS'f_cpu'
p168
S'16000000L'
p169
sS'variant'
p170
S'standard'
p171
ssS'name'
p172
S'Arduino Duemilanove w/ ATmega328'
p173
saa(lp174
S'diecimila'
p175
a(dp176
S'bootloader'
p177
(dp178
S'extended_fuses'
p179
S'0x00'
p180
sS'high_fuses'
p181
S'0xdd'
p182
sS'low_fuses'
p183
S'0xff'
p184
sS'lock_bits'
p185
S'0x0F'
p186
sS'file'
p187
S'ATmegaBOOT_168_diecimila.hex'
p188
sS'path'
p189
S'atmega'
p190
sS'unlock_bits'
p191
S'0x3F'
p192
ssS'upload'
p193
(dp194
S'protocol'
p195
S'arduino'
p196
sS'maximum_size'
p197
S'14336'
p198
sS'speed'
p199
S'19200'
p200
ssS'build'
p201
(dp202
S'core'
p203
S'arduino'
p204
sS'mcu'
p205
S'atmega168'
p206
sS'f_cpu'
p207
S'16000000L'
p208
sS'variant'
p209
S'standard'
p210
ssS'name'
p211
S'Arduino Diecimila or Duemilanove w/ ATmega168'
p212
saa(lp213
S'nano328'
p214
a(dp215
S'bootloader'
p216
(dp217
S'extended_fuses'
p218
S'0x05'
p219
sS'high_fuses'
p220
S'0xDA'
p221
sS'low_fuses'
p222
S'0xFF'
p223
sS'lock_bits'
p224
S'0x0F'
p225
sS'file'
p226
S'ATmegaBOOT_168_atmega328.hex'
p227
sS'path'
p228
S'atmega'
p229
sS'unlock_bits'
p230
S'0x3F'
p231
ssS'upload'
p232
(dp233
S'protocol'
p234
S'arduino'
p235
sS'maximum_size'
p236
S'30720'
p237
sS'speed'
p238
S'57600'
p239
ssS'build'
p240
(dp241
S'core'
p242
S'arduino'
p243
sS'mcu'
p244
S'atmega328p'
p245
sS'f_cpu'
p246
S'16000000L'
p247
sS'variant'
p248
S'eightanaloginputs'
p249
ssS'name'
p250
S'Arduino Nano w/ ATmega328'
p251
saa(lp252
S'nano'
p253
a(dp254
S'bootloader'
p255
(dp256
S'extended_fuses'
p257
S'0x00'
p258
sS'high_fuses'
p259
S'0xdd'
p260
sS'low_fuses'
p261
S'0xff'
p262
sS'lock_bits'
p263
S'0x0F'
p264
sS'file'
p265
S'ATmegaBOOT_168_diecimila.hex'
p266
sS'path'
p267
S'atmega'
p268
sS'unlock_bits'
p269
S'0x3F'
p270
ssS'upload'
p271
(dp272
S'protocol'
p273
S'arduino'
p274
sS'maximum_size'
p275
S'14336'
p276
sS'speed'
p277
S'19200'
p278
ssS'build'
p279
(dp280
S'core'
p281
S'arduino'
p282
sS'mcu'
p283
S'atmega168'
p284
sS'f_cpu'
p285
S'16000000L'
p286
sS'variant'
p287
S'eightanaloginputs'
p288
ssS'name'
p289
S'Arduino Nano w/ ATmega168'
p290
saa(lp291
S'mega2560'
p292
a(dp293
S'bootloader'
p294
(dp295
S'extended_fuses'
p296
S'0xFD'
p297
sS'high_fuses'
p298
S'0xD8'
p299
sS'low_fuses'
p300
S'0xFF'
p301
sS'lock_bits'
p302
S'0x0F'
p303
sS'file'
p304
S'stk500boot_v2_mega2560.hex'
p305
sS'path'
p306
S'stk500v2'
p307
sS'unlock_bits'
p308
S'0x3F'
p309
ssS'upload'
p310
(dp311
S'protocol'
p312
S'stk500v2'
p313
sS'maximum_size'
p314
S'258048'
p315
sS'speed'
p316
S'115200'
p317
ssS'build'
p318
(dp319
S'core'
p320
S'arduino'
p321
sS'mcu'
p322
S'atmega2560'
p323
sS'f_cpu'
p324
S'16000000L'
p325
sS'variant'
p326
S'mega'
p327
ssS'name'
p328
S'Arduino Mega 2560 or Mega ADK'
p329
saa(lp330
S'mega'
p331
a(dp332
S'bootloader'
p333
(dp334
S'extended_fuses'
p335
S'0xF5'
p336
sS'high_fuses'
p337
S'0xDA'
p338
sS'low_fuses'
p339
S'0xFF'
p340
sS'lock_bits'
p341
S'0x0F'
p342
sS'file'
p343
S'ATmegaBOOT_168_atmega1280.hex'
p344
sS'path'
p345
S'atmega'
p346
sS'unlock_bits'
p347
S'0x3F'
p348
ssS'upload'
p349
(dp350
S'protocol'
p351
S'arduino'
p352
sS'maximum_size'
p353
S'126976'
p354
sS'speed'
p355
S'57600'
p356
ssS'build'
p357
(dp358
S'core'
p359
S'arduino'
p360
sS'mcu'
p361
S'atmega1280'
p362
sS'f_cpu'
p363
S'16000000L'
p364
sS'variant'
p365
S'mega'
p366
ssS'name'
p367
S'Arduino Mega (ATmega1280)'
p368
saa(lp369
S'leonardo'
p370
a(dp371
S'bootloader'
p372
(dp373
S'extended_fuses'
p374
S'0xcb'
p375
sS'high_fuses'
p376
S'0xd8'
p377
sS'low_fuses'
p378
S'0xff'
p379
sS'lock_bits'
p380
S'0x2F'
p381
sS'file'
p382
S'Caterina-Leonardo.hex'
p383
sS'path'
p384
S'caterina'
p385
sS'unlock_bits'
p386
S'0x3F'
p387
ssS'upload'
p388
(dp389
S'protocol'
p390
S'avr109'
p391
sS'maximum_size'
p392
S'28672'
p393
sS'speed'
p394
S'57600'
p395
sS'disable_flushing'
p396
S'true'
p397
ssS'build'
p398
(dp399
S'core'
p400
S'arduino'
p401
sS'f_cpu'
p402
S'16000000L'
p403
sS'vid'
p404
S'0x2341'
p405
sS'pid'
p406
S'0x8036'
p407
sS'variant'
p408
S'leonardo'
p409
sS'mcu'
p410
S'atmega32u4'
p411
ssS'name'
p412
S'Arduino Leonardo'
p413
saa(lp414
S'mini328'
p415
a(dp416
S'bootloader'
p417
(dp418
S'extended_fuses'
p419
S'0x05'
p420
sS'high_fuses'
p421
S'0xd8'
p422
sS'low_fuses'
p423
S'0xff'
p424
sS'lock_bits'
p425
S'0x0F'
p426
sS'file'
p427
S'optiboot_atmega328-Mini.hex'
p428
sS'path'
p429
S'optiboot'
p430
sS'unlock_bits'
p431
S'0x3F'
p432
ssS'upload'
p433
(dp434
S'protocol'
p435
S'arduino'
p436
sS'maximum_size'
p437
S'28672'
p438
sS'speed'
p439
S'115200'
p440
ssS'build'
p441
(dp442
S'core'
p443
S'arduino'
p444
sS'mcu'
p445
S'atmega328p'
p446
sS'f_cpu'
p447
S'16000000L'
p448
sS'variant'
p449
S'eightanaloginputs'
p450
ssS'name'
p451
S'Arduino Mini w/ ATmega328'
p452
saa(lp453
S'mini'
p454
a(dp455
S'bootloader'
p456
(dp457
S'extended_fuses'
p458
S'0x00'
p459
sS'high_fuses'
p460
S'0xdd'
p461
sS'low_fuses'
p462
S'0xff'
p463
sS'lock_bits'
p464
S'0x0F'
p465
sS'file'
p466
S'ATmegaBOOT_168_ng.hex'
p467
sS'path'
p468
S'atmega'
p469
sS'unlock_bits'
p470
S'0x3F'
p471
ssS'upload'
p472
(dp473
S'protocol'
p474
S'arduino'
p475
sS'maximum_size'
p476
S'14336'
p477
sS'speed'
p478
S'19200'
p479
ssS'build'
p480
(dp481
S'core'
p482
S'arduino'
p483
sS'mcu'
p484
S'atmega168'
p485
sS'f_cpu'
p486
S'16000000L'
p487
sS'variant'
p488
S'eightanaloginputs'
p489
ssS'name'
p490
S'Arduino Mini w/ ATmega168'
p491
saa(lp492
S'ethernet'
p493
a(dp494
S'bootloader'
p495
(dp496
S'extended_fuses'
p497
S'0x05'
p498
sS'high_fuses'
p499
S'0xde'
p500
sS'low_fuses'
p501
S'0xff'
p502
sS'lock_bits'
p503
S'0x0F'
p504
sS'file'
p505
S'optiboot_atmega328.hex'
p506
sS'path'
p507
S'optiboot'
p508
sS'unlock_bits'
p509
S'0x3F'
p510
ssS'upload'
p511
(dp512
S'protocol'
p513
S'arduino'
p514
sS'maximum_size'
p515
S'32256'
p516
sS'speed'
p517
S'115200'
p518
ssS'build'
p519
(dp520
S'variant'
p521
S'standard'
p522
sS'mcu'
p523
S'atmega328p'
p524
sS'f_cpu'
p525
S'16000000L'
p526
sS'core'
p527
S'arduino'
p528
ssS'name'
p529
S'Arduino Ethernet'
p530
saa(lp531
S'fio'
p532
a(dp533
S'bootloader'
p534
(dp535
S'extended_fuses'
p536
S'0x05'
p537
sS'high_fuses'
p538
S'0xDA'
p539
sS'low_fuses'
p540
S'0xFF'
p541
sS'lock_bits'
p542
S'0x0F'
p543
sS'file'
p544
S'ATmegaBOOT_168_atmega328_pro_8MHz.hex'
p545
sS'path'
p546
S'arduino:atmega'
p547
sS'unlock_bits'
p548
S'0x3F'
p549
ssS'upload'
p550
(dp551
S'protocol'
p552
S'arduino'
p553
sS'maximum_size'
p554
S'30720'
p555
sS'speed'
p556
S'57600'
p557
ssS'build'
p558
(dp559
S'core'
p560
S'arduino'
p561
sS'mcu'
p562
S'atmega328p'
p563
sS'f_cpu'
p564
S'8000000L'
p565
sS'variant'
p566
S'eightanaloginputs'
p567
ssS'name'
p568
S'Arduino Fio'
p569
saa(lp570
S'bt328'
p571
a(dp572
S'bootloader'
p573
(dp574
S'extended_fuses'
p575
S'0x05'
p576
sS'high_fuses'
p577
S'0xd8'
p578
sS'low_fuses'
p579
S'0xff'
p580
sS'lock_bits'
p581
S'0x0F'
p582
sS'file'
p583
S'ATmegaBOOT_168_atmega328_bt.hex'
p584
sS'path'
p585
S'bt'
p586
sS'unlock_bits'
p587
S'0x3F'
p588
ssS'upload'
p589
(dp590
S'protocol'
p591
S'arduino'
p592
sS'maximum_size'
p593
S'28672'
p594
sS'speed'
p595
S'19200'
p596
sS'disable_flushing'
p597
S'true'
p598
ssS'build'
p599
(dp600
S'core'
p601
S'arduino'
p602
sS'mcu'
p603
S'atmega328p'
p604
sS'f_cpu'
p605
S'16000000L'
p606
sS'variant'
p607
S'eightanaloginputs'
p608
ssS'name'
p609
S'Arduino BT w/ ATmega328'
p610
saa(lp611
S'bt'
p612
a(dp613
S'bootloader'
p614
(dp615
S'extended_fuses'
p616
S'0x00'
p617
sS'high_fuses'
p618
S'0xdd'
p619
sS'low_fuses'
p620
S'0xff'
p621
sS'lock_bits'
p622
S'0x0F'
p623
sS'file'
p624
S'ATmegaBOOT_168.hex'
p625
sS'path'
p626
S'bt'
p627
sS'unlock_bits'
p628
S'0x3F'
p629
ssS'upload'
p630
(dp631
S'protocol'
p632
S'arduino'
p633
sS'maximum_size'
p634
S'14336'
p635
sS'speed'
p636
S'19200'
p637
sS'disable_flushing'
p638
S'true'
p639
ssS'build'
p640
(dp641
S'core'
p642
S'arduino'
p643
sS'mcu'
p644
S'atmega168'
p645
sS'f_cpu'
p646
S'16000000L'
p647
sS'variant'
p648
S'eightanaloginputs'
p649
ssS'name'
p650
S'Arduino BT w/ ATmega168'
p651
saa(lp652
S'lilypad328'
p653
a(dp654
S'bootloader'
p655
(dp656
S'extended_fuses'
p657
S'0x05'
p658
sS'high_fuses'
p659
S'0xDA'
p660
sS'low_fuses'
p661
S'0xFF'
p662
sS'lock_bits'
p663
S'0x0F'
p664
sS'file'
p665
S'ATmegaBOOT_168_atmega328_pro_8MHz.hex'
p666
sS'path'
p667
S'atmega'
p668
sS'unlock_bits'
p669
S'0x3F'
p670
ssS'upload'
p671
(dp672
S'protocol'
p673
S'arduino'
p674
sS'maximum_size'
p675
S'30720'
p676
sS'speed'
p677
S'57600'
p678
ssS'build'
p679
(dp680
S'core'
p681
S'arduino'
p682
sS'mcu'
p683
S'atmega328p'
p684
sS'f_cpu'
p685
S'8000000L'
p686
sS'variant'
p687
S'standard'
p688
ssS'name'
p689
S'LilyPad Arduino w/ ATmega328'
p690
saa(lp691
S'lilypad'
p692
a(dp693
S'bootloader'
p694
(dp695
S'extended_fuses'
p696
S'0x00'
p697
sS'high_fuses'
p698
S'0xdd'
p699
sS'low_fuses'
p700
S'0xe2'
p701
sS'lock_bits'
p702
S'0x0F'
p703
sS'file'
p704
S'LilyPadBOOT_168.hex'
p705
sS'path'
p706
S'lilypad'
p707
sS'unlock_bits'
p708
S'0x3F'
p709
ssS'upload'
p710
(dp711
S'protocol'
p712
S'arduino'
p713
sS'maximum_size'
p714
S'14336'
p715
sS'speed'
p716
S'19200'
p717
ssS'build'
p718
(dp719
S'core'
p720
S'arduino'
p721
sS'mcu'
p722
S'atmega168'
p723
sS'f_cpu'
p724
S'8000000L'
p725
sS'variant'
p726
S'standard'
p727
ssS'name'
p728
S'LilyPad Arduino w/ ATmega168'
p729
saa(lp730
S'pro5v328'
p731
a(dp732
S'bootloader'
p733
(dp734
S'extended_fuses'
p735
S'0x05'
p736
sS'high_fuses'
p737
S'0xDA'
p738
sS'low_fuses'
p739
S'0xFF'
p740
sS'lock_bits'
p741
S'0x0F'
p742
sS'file'
p743
S'ATmegaBOOT_168_atmega328.hex'
p744
sS'path'
p745
S'atmega'
p746
sS'unlock_bits'
p747
S'0x3F'
p748
ssS'upload'
p749
(dp750
S'protocol'
p751
S'arduino'
p752
sS'maximum_size'
p753
S'30720'
p754
sS'speed'
p755
S'57600'
p756
ssS'build'
p757
(dp758
S'core'
p759
S'arduino'
p760
sS'mcu'
p761
S'atmega328p'
p762
sS'f_cpu'
p763
S'16000000L'
p764
sS'variant'
p765
S'standard'
p766
ssS'name'
p767
S'Arduino Pro or Pro Mini (5V, 16 MHz) w/ ATmega328'
p768
saa(lp769
S'pro5v'
p770
a(dp771
S'bootloader'
p772
(dp773
S'extended_fuses'
p774
S'0x00'
p775
sS'high_fuses'
p776
S'0xdd'
p777
sS'low_fuses'
p778
S'0xff'
p779
sS'lock_bits'
p780
S'0x0F'
p781
sS'file'
p782
S'ATmegaBOOT_168_diecimila.hex'
p783
sS'path'
p784
S'atmega'
p785
sS'unlock_bits'
p786
S'0x3F'
p787
ssS'upload'
p788
(dp789
S'protocol'
p790
S'arduino'
p791
sS'maximum_size'
p792
S'14336'
p793
sS'speed'
p794
S'19200'
p795
ssS'build'
p796
(dp797
S'core'
p798
S'arduino'
p799
sS'mcu'
p800
S'atmega168'
p801
sS'f_cpu'
p802
S'16000000L'
p803
sS'variant'
p804
S'standard'
p805
ssS'name'
p806
S'Arduino Pro or Pro Mini (5V, 16 MHz) w/ ATmega168'
p807
saa(lp808
S'pro328'
p809
a(dp810
S'bootloader'
p811
(dp812
S'extended_fuses'
p813
S'0x05'
p814
sS'high_fuses'
p815
S'0xDA'
p816
sS'low_fuses'
p817
S'0xFF'
p818
sS'lock_bits'
p819
S'0x0F'
p820
sS'file'
p821
S'ATmegaBOOT_168_atmega328_pro_8MHz.hex'
p822
sS'path'
p823
S'atmega'
p824
sS'unlock_bits'
p825
S'0x3F'
p826
ssS'upload'
p827
(dp828
S'protocol'
p829
S'arduino'
p830
sS'maximum_size'
p831
S'30720'
p832
sS'speed'
p833
S'57600'
p834
ssS'build'
p835
(dp836
S'core'
p837
S'arduino'
p838
sS'mcu'
p839
S'atmega328p'
p840
sS'f_cpu'
p841
S'8000000L'
p842
sS'variant'
p843
S'standard'
p844
ssS'name'
p845
S'Arduino Pro or Pro Mini (3.3V, 8 MHz) w/ ATmega328'
p846
saa(lp847
S'pro'
p848
a(dp849
S'bootloader'
p850
(dp851
S'extended_fuses'
p852
S'0x00'
p853
sS'high_fuses'
p854
S'0xdd'
p855
sS'low_fuses'
p856
S'0xc6'
p857
sS'lock_bits'
p858
S'0x0F'
p859
sS'file'
p860
S'ATmegaBOOT_168_pro_8MHz.hex'
p861
sS'path'
p862
S'atmega'
p863
sS'unlock_bits'
p864
S'0x3F'
p865
ssS'upload'
p866
(dp867
S'protocol'
p868
S'arduino'
p869
sS'maximum_size'
p870
S'14336'
p871
sS'speed'
p872
S'19200'
p873
ssS'build'
p874
(dp875
S'core'
p876
S'arduino'
p877
sS'mcu'
p878
S'atmega168'
p879
sS'f_cpu'
p880
S'8000000L'
p881
sS'variant'
p882
S'standard'
p883
ssS'name'
p884
S'Arduino Pro or Pro Mini (3.3V, 8 MHz) w/ ATmega168'
p885
saa(lp886
S'atmega168'
p887
a(dp888
S'bootloader'
p889
(dp890
S'extended_fuses'
p891
S'0x00'
p892
sS'high_fuses'
p893
S'0xdd'
p894
sS'low_fuses'
p895
S'0xff'
p896
sS'lock_bits'
p897
S'0x0F'
p898
sS'file'
p899
S'ATmegaBOOT_168_ng.hex'
p900
sS'path'
p901
S'atmega'
p902
sS'unlock_bits'
p903
S'0x3F'
p904
ssS'upload'
p905
(dp906
S'protocol'
p907
S'arduino'
p908
sS'maximum_size'
p909
S'14336'
p910
sS'speed'
p911
S'19200'
p912
ssS'build'
p913
(dp914
S'core'
p915
S'arduino'
p916
sS'mcu'
p917
S'atmega168'
p918
sS'f_cpu'
p919
S'16000000L'
p920
sS'variant'
p921
S'standard'
p922
ssS'name'
p923
S'Arduino NG or older w/ ATmega168'
p924
saa(lp925
S'atmega8'
p926
a(dp927
S'bootloader'
p928
(dp929
S'high_fuses'
p930
S'0xca'
p931
sS'low_fuses'
p932
S'0xdf'
p933
sS'lock_bits'
p934
S'0x0F'
p935
sS'file'
p936
S'ATmegaBOOT.hex'
p937
sS'path'
p938
S'atmega8'
p939
sS'unlock_bits'
p940
S'0x3F'
p941
ssS'upload'
p942
(dp943
S'protocol'
p944
S'arduino'
p945
sS'maximum_size'
p946
S'7168'
p947
sS'speed'
p948
S'19200'
p949
ssS'build'
p950
(dp951
S'core'
p952
S'arduino'
p953
sS'mcu'
p954
S'atmega8'
p955
sS'f_cpu'
p956
S'16000000L'
p957
sS'variant'
p958
S'standard'
p959
ssS'name'
p960
S'Arduino NG or older w/ ATmega8'
p961
saatp962
Rp963
(dp964
S'default'
p965
S'uno'
p966
sbtp967
a(S'cxx'
p968
S'/Applications/Arduino.app/Contents/Resources/Java/hardware/tools/avr/bin/avr-g++'
p969
tp970
a(S'build_dir'
p971
S'.build/uno'
p972
tp973
a.